; Function Attrs: mustprogress uwtable
define i32 @u_vsnprintf_u_77(ptr noundef %0, i32 noundef %1, ptr noundef %2, ptr noundef %3) local_unnamed_addr #0 {
  %5 = alloca i32, align 4
  %6 = alloca %struct.u_localized_print_string, align 8
  call void @llvm.lifetime.start.p0(i64 4, ptr nonnull %5) #7
  store i32 0, ptr %5, align 4, !tbaa !3
  call void @llvm.lifetime.start.p0(i64 72, ptr nonnull %6) #7
  %spec.store.select = tail call i32 @llvm.umin.i32(i32 %1, i32 2147483647)
  store ptr %0, ptr %6, align 8, !tbaa !7
  %7 = getelementptr inbounds nuw i8, ptr %6, i64 12
  store i32 %spec.store.select, ptr %7, align 4, !tbaa !13
  %8 = getelementptr inbounds nuw i8, ptr %6, i64 8
  store i32 %spec.store.select, ptr %8, align 8, !tbaa !14
  %9 = getelementptr inbounds nuw i8, ptr %6, i64 16
  %10 = call ptr @u_locbund_init_77(ptr noundef nonnull %9, ptr noundef nonnull @.str)
  %11 = icmp eq ptr %10, null
  br i1 %11, label %24, label %12

12:                                               ; preds = %4
  %13 = call i32 @u_printf_parse_77(ptr noundef nonnull @_ZL24g_sprintf_stream_handler, ptr noundef %2, ptr noundef nonnull %6, ptr noundef nonnull %6, ptr noundef nonnull %9, ptr noundef nonnull %5, ptr noundef %3)
  %14 = load i32, ptr %8, align 8, !tbaa !14
  %15 = icmp sgt i32 %14, 0
  br i1 %15, label %16, label %21

16:                                               ; preds = %12
  %17 = load i32, ptr %7, align 4, !tbaa !13
  %18 = sub nsw i32 %17, %14
  %19 = sext i32 %18 to i64
  %20 = getelementptr inbounds i16, ptr %0, i64 %19
  store i16 0, ptr %20, align 2, !tbaa !15
  br label %21

21:                                               ; preds = %16, %12
  call void @u_locbund_close_77(ptr noundef nonnull %9)
  %22 = icmp slt i32 %13, 0
  %23 = load i32, ptr %5, align 4
  %spec.select = select i1 %22, i32 %13, i32 %23
  br label %24

24:                                               ; preds = %21, %4
  %.0 = phi i32 [ 0, %4 ], [ %spec.select, %21 ]
  call void @llvm.lifetime.end.p0(i64 72, ptr nonnull %6) #7
  call void @llvm.lifetime.end.p0(i64 4, ptr nonnull %5) #7
  ret i32 %.0
}